; ModuleID = 'source-C-CXX/59/472.c'
source_filename = "source-C-CXX/59/472.c"
target datalayout = "e-m:e-p270:32:32-p271:32:32-p272:64:64-i64:64-f80:128-n8:16:32:64-S128"
target triple = "x86_64-pc-linux-gnu"

@.str = private unnamed_addr constant [3 x i8] c"%d\00", align 1
@.str.1 = private unnamed_addr constant [7 x i8] c"%d %d\0A\00", align 1
@.str.2 = private unnamed_addr constant [6 x i8] c"empty\00", align 1

; Function Attrs: nofree nounwind sspstrong uwtable
define dso_local i32 @main() local_unnamed_addr #0 {
  %1 = alloca i32, align 4
  %2 = bitcast i32* %1 to i8*
  call void @llvm.lifetime.start.p0i8(i64 4, i8* nonnull %2) #4
  %3 = call i32 (i8*, ...) @__isoc99_scanf(i8* getelementptr inbounds ([3 x i8], [3 x i8]* @.str, i64 0, i64 0), i32* nonnull %1)
  %4 = load i32, i32* %1, align 4, !tbaa !5
  %5 = icmp slt i32 %4, 3
  br i1 %5, label %37, label %6

6:                                                ; preds = %0, %29
  %7 = phi i32 [ %31, %29 ], [ 0, %0 ]
  %8 = phi i32 [ %30, %29 ], [ 2, %0 ]
  %9 = phi i32 [ %32, %29 ], [ 3, %0 ]
  %10 = sitofp i32 %9 to double
  %11 = call double @sqrt(double %10) #4
  %12 = fptosi double %11 to i32
  %13 = icmp slt i32 %12, 2
  br i1 %13, label %21, label %17

14:                                               ; preds = %17
  %15 = add nuw i32 %18, 1
  %16 = icmp eq i32 %18, %12
  br i1 %16, label %21, label %17, !llvm.loop !9

17:                                               ; preds = %6, %14
  %18 = phi i32 [ %15, %14 ], [ 2, %6 ]
  %19 = urem i32 %9, %18
  %20 = icmp eq i32 %19, 0
  br i1 %20, label %29, label %14

21:                                               ; preds = %14, %6
  %22 = add nsw i32 %9, -2
  %23 = icmp eq i32 %22, %8
  %24 = icmp ne i32 %9, 3
  %25 = and i1 %24, %23
  br i1 %25, label %26, label %29

26:                                               ; preds = %21
  %27 = call i32 (i8*, ...) @printf(i8* nonnull dereferenceable(1) getelementptr inbounds ([7 x i8], [7 x i8]* @.str.1, i64 0, i64 0), i32 %8, i32 %9)
  %28 = add nsw i32 %7, 1
  br label %29

29:                                               ; preds = %17, %21, %26
  %30 = phi i32 [ %9, %26 ], [ %9, %21 ], [ %8, %17 ]
  %31 = phi i32 [ %28, %26 ], [ %7, %21 ], [ %7, %17 ]
  %32 = add nuw nsw i32 %9, 2
  %33 = load i32, i32* %1, align 4, !tbaa !5
  %34 = icmp sgt i32 %32, %33
  br i1 %34, label %35, label %6, !llvm.loop !11

35:                                               ; preds = %29
  %36 = icmp eq i32 %31, 0
  br i1 %36, label %37, label %39

37:                                               ; preds = %0, %35
  %38 = call i32 (i8*, ...) @printf(i8* nonnull dereferenceable(1) getelementptr inbounds ([6 x i8], [6 x i8]* @.str.2, i64 0, i64 0))
  br label %39

39:                                               ; preds = %37, %35
  call void @llvm.lifetime.end.p0i8(i64 4, i8* nonnull %2) #4
  ret i32 0
}

; Function Attrs: argmemonly mustprogress nofree nosync nounwind willreturn
declare void @llvm.lifetime.start.p0i8(i64 immarg, i8* nocapture) #1

; Function Attrs: nofree nounwind
declare noundef i32 @__isoc99_scanf(i8* nocapture noundef readonly, ...) local_unnamed_addr #2

; Function Attrs: mustprogress nofree nounwind willreturn
declare double @sqrt(double) local_unnamed_addr #3

; Function Attrs: nofree nounwind
declare noundef i32 @printf(i8* nocapture noundef readonly, ...) local_unnamed_addr #2

; Function Attrs: argmemonly mustprogress nofree nosync nounwind willreturn
declare void @llvm.lifetime.end.p0i8(i64 immarg, i8* nocapture) #1


!llvm.module.flags = !{!0, !1, !2, !3}
!llvm.ident = !{!4}

!0 = !{i32 1, !"wchar_size", i32 4}
!1 = !{i32 7, !"PIC Level", i32 2}
!2 = !{i32 7, !"PIE Level", i32 2}
!3 = !{i32 7, !"uwtable", i32 1}
!4 = !{!"clang version 13.0.0"}
!5 = !{!6, !6, i64 0}
!6 = !{!"int", !7, i64 0}
!7 = !{!"omnipotent char", !8, i64 0}
!8 = !{!"Simple C/C++ TBAA"}
!9 = distinct !{!9, !10}
!10 = !{!"llvm.loop.mustprogress"}
!11 = distinct !{!11, !10}
